target datalayout = "e-m:e-p270:32:32-p271:32:32-p272:64:64-i64:64-i128:128-f80:128-n8:16:32:64-S128"
target triple = "x86_64-pc-linux-gnu"

%struct.lua_State = type { i8, i8, i8, i8, i8, i8, i8, ptr, ptr, ptr, ptr, ptr, ptr, ptr, ptr, i32, i32, i16, i16, i32, ptr, ptr, ptr, ptr, ptr }

@.str.9 = private unnamed_addr constant [7 x i8] c"thread\00", align 1
@_ZL9statnames = internal constant [5 x ptr] [ptr @.str.3, ptr @.str.10, ptr @.str.11, ptr @.str.12, ptr @.str.12], align 16
@.str.16 = private unnamed_addr constant [26 x i8] c"cannot close %s coroutine\00", align 1

; Function Attrs: mustprogress uwtable
define internal noundef i32 @_ZL7cocloseP9lua_State(ptr noundef %0) #0 {
  %2 = alloca i32, align 4
  %3 = alloca ptr, align 8
  %4 = alloca ptr, align 8
  %5 = alloca i32, align 4
  store ptr %0, ptr %3, align 8
  %6 = load ptr, ptr %3, align 8
  %7 = call noundef ptr @_Z12lua_tothreadP9lua_Statei(ptr noundef %6, i32 noundef 1)
  store ptr %7, ptr %4, align 8
  %8 = load ptr, ptr %4, align 8
  %9 = icmp ne ptr %8, null
  br i1 %9, label %10, label %11

10:                                               ; preds = %1
  br label %14

11:                                               ; preds = %1
  %12 = load ptr, ptr %3, align 8
  call void @_Z15luaL_typeerrorLP9lua_StateiPKc(ptr noundef %12, i32 noundef 1, ptr noundef @.str.9) #3
  unreachable

13:                                               ; No predecessors!
  br label %14

14:                                               ; preds = %13, %10
  %15 = load ptr, ptr %3, align 8
  %16 = load ptr, ptr %4, align 8
  %17 = call noundef i32 @_Z12lua_costatusP9lua_StateS0_(ptr noundef %15, ptr noundef %16)
  store i32 %17, ptr %5, align 4
  %18 = load i32, ptr %5, align 4
  %19 = icmp ne i32 %18, 3
  br i1 %19, label %20, label %32

20:                                               ; preds = %14
  %21 = load i32, ptr %5, align 4
  %22 = icmp ne i32 %21, 4
  br i1 %22, label %23, label %32

23:                                               ; preds = %20
  %24 = load i32, ptr %5, align 4
  %25 = icmp ne i32 %24, 1
  br i1 %25, label %26, label %32

26:                                               ; preds = %23
  %27 = load ptr, ptr %3, align 8
  %28 = load i32, ptr %5, align 4
  %29 = sext i32 %28 to i64
  %30 = getelementptr inbounds [5 x ptr], ptr @_ZL9statnames, i64 0, i64 %29
  %31 = load ptr, ptr %30, align 8
  call void (ptr, ptr, ...) @_Z11luaL_errorLP9lua_StatePKcz(ptr noundef %27, ptr noundef @.str.16, ptr noundef %31) #3
  unreachable

32:                                               ; preds = %23, %20, %14
  %33 = load ptr, ptr %4, align 8
  %34 = getelementptr inbounds %struct.lua_State, ptr %33, i32 0, i32 3
  %35 = load i8, ptr %34, align 1
  %36 = zext i8 %35 to i32
  %37 = icmp eq i32 %36, 0
  br i1 %37, label %44, label %38

38:                                               ; preds = %32
  %39 = load ptr, ptr %4, align 8
  %40 = getelementptr inbounds %struct.lua_State, ptr %39, i32 0, i32 3
  %41 = load i8, ptr %40, align 1
  %42 = zext i8 %41 to i32
  %43 = icmp eq i32 %42, 1
  br i1 %43, label %44, label %47

44:                                               ; preds = %38, %32
  %45 = load ptr, ptr %3, align 8
  call void @_Z15lua_pushbooleanP9lua_Statei(ptr noundef %45, i32 noundef 1)
  %46 = load ptr, ptr %4, align 8
  call void @_Z15lua_resetthreadP9lua_State(ptr noundef %46)
  store i32 1, ptr %2, align 4
  br label %57

47:                                               ; preds = %38
  %48 = load ptr, ptr %3, align 8
  call void @_Z15lua_pushbooleanP9lua_Statei(ptr noundef %48, i32 noundef 0)
  %49 = load ptr, ptr %4, align 8
  %50 = call noundef i32 @_Z10lua_gettopP9lua_State(ptr noundef %49)
  %51 = icmp ne i32 %50, 0
  br i1 %51, label %52, label %55

52:                                               ; preds = %47
  %53 = load ptr, ptr %4, align 8
  %54 = load ptr, ptr %3, align 8
  call void @_Z9lua_xmoveP9lua_StateS0_i(ptr noundef %53, ptr noundef %54, i32 noundef 1)
  br label %55

55:                                               ; preds = %52, %47
  %56 = load ptr, ptr %4, align 8
  call void @_Z15lua_resetthreadP9lua_State(ptr noundef %56)
  store i32 2, ptr %2, align 4
  br label %57

57:                                               ; preds = %55, %44
  %58 = load i32, ptr %2, align 4
  ret i32 %58
}