; Function Attrs: mustprogress uwtable
define internal noundef range(i32 1, 3) i32 @_ZL7cocloseP9lua_State(ptr noundef %0) #0 {
  %2 = tail call noundef ptr @_Z12lua_tothreadP9lua_Statei(ptr noundef %0, i32 noundef 1)
  %.not = icmp eq ptr %2, null
  br i1 %.not, label %3, label %4

3:                                                ; preds = %1
  tail call void @_Z15luaL_typeerrorLP9lua_StateiPKc(ptr noundef %0, i32 noundef 1, ptr noundef nonnull @.str.9) #3
  unreachable

4:                                                ; preds = %1
  %5 = tail call noundef i32 @_Z12lua_costatusP9lua_StateS0_(ptr noundef %0, ptr noundef nonnull %2)
  switch i32 %5, label %6 [
    i32 4, label %10
    i32 3, label %10
    i32 1, label %10
  ]

6:                                                ; preds = %4
  %7 = sext i32 %5 to i64
  %8 = getelementptr inbounds [5 x ptr], ptr @_ZL9statnames, i64 0, i64 %7
  %9 = load ptr, ptr %8, align 8
  tail call void (ptr, ptr, ...) @_Z11luaL_errorLP9lua_StatePKcz(ptr noundef %0, ptr noundef nonnull @.str.16, ptr noundef %9) #3
  unreachable

10:                                               ; preds = %4, %4, %4
  %11 = getelementptr inbounds i8, ptr %2, i64 3
  %12 = load i8, ptr %11, align 1
  %switch = icmp ult i8 %12, 2
  br i1 %switch, label %13, label %14

13:                                               ; preds = %10
  tail call void @_Z15lua_pushbooleanP9lua_Statei(ptr noundef %0, i32 noundef 1)
  br label %17

14:                                               ; preds = %10
  tail call void @_Z15lua_pushbooleanP9lua_Statei(ptr noundef %0, i32 noundef 0)
  %15 = tail call noundef i32 @_Z10lua_gettopP9lua_State(ptr noundef nonnull %2)
  %.not25 = icmp eq i32 %15, 0
  br i1 %.not25, label %17, label %16

16:                                               ; preds = %14
  tail call void @_Z9lua_xmoveP9lua_StateS0_i(ptr noundef nonnull %2, ptr noundef %0, i32 noundef 1)
  br label %17

17:                                               ; preds = %14, %16, %13
  %.0 = phi i32 [ 1, %13 ], [ 2, %16 ], [ 2, %14 ]
  tail call void @_Z15lua_resetthreadP9lua_State(ptr noundef nonnull %2)
  ret i32 %.0
}